target datalayout = "e-m:e-p270:32:32-p271:32:32-p272:64:64-i64:64-i128:128-f80:128-n8:16:32:64-S128"
target triple = "x86_64-pc-linux-gnu"

%struct.lua_State = type { i8, i8, i8, i8, i8, i8, i8, ptr, ptr, ptr, ptr, ptr, ptr, ptr, ptr, i32, i32, i16, i16, i32, ptr, ptr, ptr, ptr, ptr }
%struct.global_State = type { %struct.stringtable, ptr, ptr, i8, i8, ptr, ptr, ptr, i64, i64, i32, i32, i32, [40 x ptr], [40 x ptr], ptr, ptr, ptr, [256 x i64], ptr, %struct.UpVal, [11 x ptr], [11 x ptr], [21 x ptr], %struct.lua_TValue, %struct.lua_TValue, i32, ptr, i64, [4 x i64], %struct.lua_Callbacks, %struct.lua_ExecutionCallbacks, [128 x ptr], [128 x ptr], [128 x ptr], %struct.GCStats }
%struct.stringtable = type { ptr, i32, i32 }
%struct.UpVal = type { i8, i8, i8, i8, ptr, %union.anon }
%union.anon = type { %struct.anon }
%struct.anon = type { ptr, ptr, ptr }
%struct.lua_TValue = type { %union.Value, [1 x i32], i32 }
%union.Value = type { ptr }
%struct.lua_Callbacks = type { ptr, ptr, ptr, ptr, ptr, ptr, ptr, ptr, ptr, ptr }
%struct.lua_ExecutionCallbacks = type { ptr, ptr, ptr, ptr, ptr, ptr, ptr }
%struct.GCStats = type { [32 x i32], i32, i32, i64, i64, i64, double, double, double }
%struct.Proto = type { i8, i8, i8, i8, i8, i8, i8, i8, ptr, ptr, ptr, ptr, ptr, i64, ptr, ptr, ptr, ptr, ptr, ptr, ptr, ptr, ptr, ptr, i32, i32, i32, i32, i32, i32, i32, i32, i32, i32 }

; Function Attrs: mustprogress uwtable
define hidden noundef ptr @_Z13luaF_newprotoP9lua_State(ptr noundef %0) #0 {
  %2 = alloca ptr, align 8
  %3 = alloca ptr, align 8
  store ptr %0, ptr %2, align 8, !tbaa !4
  call void @llvm.lifetime.start.p0(i64 8, ptr %3) #5
  %4 = load ptr, ptr %2, align 8, !tbaa !4
  %5 = load ptr, ptr %2, align 8, !tbaa !4
  %6 = getelementptr inbounds nuw %struct.lua_State, ptr %5, i32 0, i32 4
  %7 = load i8, ptr %6, align 4, !tbaa !9
  %8 = call noundef ptr @_Z12luaM_newgco_P9lua_Statemh(ptr noundef %4, i64 noundef 176, i8 noundef zeroext %7)
  store ptr %8, ptr %3, align 8, !tbaa !21
  %9 = load ptr, ptr %2, align 8, !tbaa !4
  %10 = getelementptr inbounds nuw %struct.lua_State, ptr %9, i32 0, i32 9
  %11 = load ptr, ptr %10, align 8, !tbaa !23
  %12 = getelementptr inbounds nuw %struct.global_State, ptr %11, i32 0, i32 3
  %13 = load i8, ptr %12, align 8, !tbaa !24
  %14 = zext i8 %13 to i32
  %15 = and i32 %14, 3
  %16 = trunc i32 %15 to i8
  %17 = load ptr, ptr %3, align 8, !tbaa !21
  %18 = getelementptr inbounds nuw %struct.Proto, ptr %17, i32 0, i32 1
  store i8 %16, ptr %18, align 1, !tbaa !38
  %19 = load ptr, ptr %3, align 8, !tbaa !21
  %20 = getelementptr inbounds nuw %struct.Proto, ptr %19, i32 0, i32 0
  store i8 11, ptr %20, align 8, !tbaa !44
  %21 = load ptr, ptr %2, align 8, !tbaa !4
  %22 = getelementptr inbounds nuw %struct.lua_State, ptr %21, i32 0, i32 4
  %23 = load i8, ptr %22, align 4, !tbaa !9
  %24 = load ptr, ptr %3, align 8, !tbaa !21
  %25 = getelementptr inbounds nuw %struct.Proto, ptr %24, i32 0, i32 2
  store i8 %23, ptr %25, align 2, !tbaa !45
  %26 = load ptr, ptr %3, align 8, !tbaa !21
  %27 = getelementptr inbounds nuw %struct.Proto, ptr %26, i32 0, i32 3
  store i8 0, ptr %27, align 1, !tbaa !46
  %28 = load ptr, ptr %3, align 8, !tbaa !21
  %29 = getelementptr inbounds nuw %struct.Proto, ptr %28, i32 0, i32 4
  store i8 0, ptr %29, align 4, !tbaa !47
  %30 = load ptr, ptr %3, align 8, !tbaa !21
  %31 = getelementptr inbounds nuw %struct.Proto, ptr %30, i32 0, i32 5
  store i8 0, ptr %31, align 1, !tbaa !48
  %32 = load ptr, ptr %3, align 8, !tbaa !21
  %33 = getelementptr inbounds nuw %struct.Proto, ptr %32, i32 0, i32 6
  store i8 0, ptr %33, align 2, !tbaa !49
  %34 = load ptr, ptr %3, align 8, !tbaa !21
  %35 = getelementptr inbounds nuw %struct.Proto, ptr %34, i32 0, i32 7
  store i8 0, ptr %35, align 1, !tbaa !50
  %36 = load ptr, ptr %3, align 8, !tbaa !21
  %37 = getelementptr inbounds nuw %struct.Proto, ptr %36, i32 0, i32 8
  store ptr null, ptr %37, align 8, !tbaa !51
  %38 = load ptr, ptr %3, align 8, !tbaa !21
  %39 = getelementptr inbounds nuw %struct.Proto, ptr %38, i32 0, i32 9
  store ptr null, ptr %39, align 8, !tbaa !52
  %40 = load ptr, ptr %3, align 8, !tbaa !21
  %41 = getelementptr inbounds nuw %struct.Proto, ptr %40, i32 0, i32 10
  store ptr null, ptr %41, align 8, !tbaa !53
  %42 = load ptr, ptr %3, align 8, !tbaa !21
  %43 = getelementptr inbounds nuw %struct.Proto, ptr %42, i32 0, i32 11
  store ptr null, ptr %43, align 8, !tbaa !54
  %44 = load ptr, ptr %3, align 8, !tbaa !21
  %45 = getelementptr inbounds nuw %struct.Proto, ptr %44, i32 0, i32 12
  store ptr null, ptr %45, align 8, !tbaa !55
  %46 = load ptr, ptr %3, align 8, !tbaa !21
  %47 = getelementptr inbounds nuw %struct.Proto, ptr %46, i32 0, i32 13
  store i64 0, ptr %47, align 8, !tbaa !56
  %48 = load ptr, ptr %3, align 8, !tbaa !21
  %49 = getelementptr inbounds nuw %struct.Proto, ptr %48, i32 0, i32 14
  store ptr null, ptr %49, align 8, !tbaa !57
  %50 = load ptr, ptr %3, align 8, !tbaa !21
  %51 = getelementptr inbounds nuw %struct.Proto, ptr %50, i32 0, i32 15
  store ptr null, ptr %51, align 8, !tbaa !58
  %52 = load ptr, ptr %3, align 8, !tbaa !21
  %53 = getelementptr inbounds nuw %struct.Proto, ptr %52, i32 0, i32 16
  store ptr null, ptr %53, align 8, !tbaa !59
  %54 = load ptr, ptr %3, align 8, !tbaa !21
  %55 = getelementptr inbounds nuw %struct.Proto, ptr %54, i32 0, i32 17
  store ptr null, ptr %55, align 8, !tbaa !60
  %56 = load ptr, ptr %3, align 8, !tbaa !21
  %57 = getelementptr inbounds nuw %struct.Proto, ptr %56, i32 0, i32 18
  store ptr null, ptr %57, align 8, !tbaa !61
  %58 = load ptr, ptr %3, align 8, !tbaa !21
  %59 = getelementptr inbounds nuw %struct.Proto, ptr %58, i32 0, i32 19
  store ptr null, ptr %59, align 8, !tbaa !62
  %60 = load ptr, ptr %3, align 8, !tbaa !21
  %61 = getelementptr inbounds nuw %struct.Proto, ptr %60, i32 0, i32 20
  store ptr null, ptr %61, align 8, !tbaa !63
  %62 = load ptr, ptr %3, align 8, !tbaa !21
  %63 = getelementptr inbounds nuw %struct.Proto, ptr %62, i32 0, i32 21
  store ptr null, ptr %63, align 8, !tbaa !64
  %64 = load ptr, ptr %3, align 8, !tbaa !21
  %65 = getelementptr inbounds nuw %struct.Proto, ptr %64, i32 0, i32 22
  store ptr null, ptr %65, align 8, !tbaa !65
  %66 = load ptr, ptr %3, align 8, !tbaa !21
  %67 = getelementptr inbounds nuw %struct.Proto, ptr %66, i32 0, i32 23
  store ptr null, ptr %67, align 8, !tbaa !66
  %68 = load ptr, ptr %3, align 8, !tbaa !21
  %69 = getelementptr inbounds nuw %struct.Proto, ptr %68, i32 0, i32 24
  store i32 0, ptr %69, align 8, !tbaa !67
  %70 = load ptr, ptr %3, align 8, !tbaa !21
  %71 = getelementptr inbounds nuw %struct.Proto, ptr %70, i32 0, i32 25
  store i32 0, ptr %71, align 4, !tbaa !68
  %72 = load ptr, ptr %3, align 8, !tbaa !21
  %73 = getelementptr inbounds nuw %struct.Proto, ptr %72, i32 0, i32 26
  store i32 0, ptr %73, align 8, !tbaa !69
  %74 = load ptr, ptr %3, align 8, !tbaa !21
  %75 = getelementptr inbounds nuw %struct.Proto, ptr %74, i32 0, i32 27
  store i32 0, ptr %75, align 4, !tbaa !70
  %76 = load ptr, ptr %3, align 8, !tbaa !21
  %77 = getelementptr inbounds nuw %struct.Proto, ptr %76, i32 0, i32 28
  store i32 0, ptr %77, align 8, !tbaa !71
  %78 = load ptr, ptr %3, align 8, !tbaa !21
  %79 = getelementptr inbounds nuw %struct.Proto, ptr %78, i32 0, i32 29
  store i32 0, ptr %79, align 4, !tbaa !72
  %80 = load ptr, ptr %3, align 8, !tbaa !21
  %81 = getelementptr inbounds nuw %struct.Proto, ptr %80, i32 0, i32 30
  store i32 0, ptr %81, align 8, !tbaa !73
  %82 = load ptr, ptr %3, align 8, !tbaa !21
  %83 = getelementptr inbounds nuw %struct.Proto, ptr %82, i32 0, i32 31
  store i32 0, ptr %83, align 4, !tbaa !74
  %84 = load ptr, ptr %3, align 8, !tbaa !21
  %85 = getelementptr inbounds nuw %struct.Proto, ptr %84, i32 0, i32 32
  store i32 0, ptr %85, align 8, !tbaa !75
  %86 = load ptr, ptr %3, align 8, !tbaa !21
  %87 = getelementptr inbounds nuw %struct.Proto, ptr %86, i32 0, i32 33
  store i32 0, ptr %87, align 4, !tbaa !76
  %88 = load ptr, ptr %3, align 8, !tbaa !21
  call void @llvm.lifetime.end.p0(i64 8, ptr %3) #5
  ret ptr %88
}