; Function Attrs: mustprogress uwtable
define hidden noundef ptr @_Z13luaF_newprotoP9lua_State(ptr noundef %0) local_unnamed_addr #0 {
  %2 = getelementptr inbounds nuw i8, ptr %0, i64 4
  %3 = load i8, ptr %2, align 4, !tbaa !4
  %4 = tail call noundef ptr @_Z12luaM_newgco_P9lua_Statemh(ptr noundef %0, i64 noundef 176, i8 noundef zeroext %3)
  %5 = getelementptr inbounds nuw i8, ptr %0, i64 24
  %6 = load ptr, ptr %5, align 8, !tbaa !19
  %7 = getelementptr inbounds nuw i8, ptr %6, i64 32
  %8 = load i8, ptr %7, align 8, !tbaa !20
  %9 = and i8 %8, 3
  %10 = getelementptr inbounds nuw i8, ptr %4, i64 1
  store i8 %9, ptr %10, align 1, !tbaa !35
  store i8 11, ptr %4, align 8, !tbaa !41
  %11 = load i8, ptr %2, align 4, !tbaa !4
  %12 = getelementptr inbounds nuw i8, ptr %4, i64 2
  store i8 %11, ptr %12, align 2, !tbaa !42
  %13 = getelementptr inbounds nuw i8, ptr %4, i64 3
  tail call void @llvm.memset.p0.i64(ptr noundef nonnull align 1 dereferenceable(173) %13, i8 0, i64 173, i1 false)
  ret ptr %4
}